target datalayout = "e-m:e-p270:32:32-p271:32:32-p272:64:64-i64:64-i128:128-f80:128-n8:16:32:64-S128"
target triple = "x86_64-pc-linux-gnu"

%struct.rb_data_type_struct = type { ptr, %struct.anon, ptr, ptr, i64 }
%struct.anon = type { ptr, ptr, ptr, ptr, [1 x ptr] }
%struct.rb_stat = type { %struct.stat, i8 }
%struct.stat = type { i64, i64, i64, i32, i32, i32, i32, i64, i64, i64, i64, %struct.timespec, %struct.timespec, %struct.timespec, [3 x i64] }
%struct.timespec = type { i64, i64 }

@stat_data_type = internal constant %struct.rb_data_type_struct { ptr @.str.37, %struct.anon { ptr null, ptr inttoptr (i64 -1 to ptr), ptr null, ptr null, [1 x ptr] zeroinitializer }, ptr null, ptr null, i64 35 }, align 8
@rb_eTypeError = external global i64, align 8
@.str.147 = private unnamed_addr constant [25 x i8] c"uninitialized File::Stat\00", align 1

; Function Attrs: inlinehint nounwind sspstrong willreturn memory(none) uwtable
define internal i64 @RB_INT2FIX(i64 noundef %0) #10 {
  %2 = alloca i64, align 8
  %3 = alloca i64, align 8
  %4 = alloca i64, align 8
  %5 = alloca i64, align 8
  %6 = alloca i64, align 8
  %7 = alloca i64, align 8
  store i64 %0, ptr %2, align 8, !tbaa !7
  call void @llvm.lifetime.start.p0(i64 8, ptr %3) #24
  %8 = load i64, ptr %2, align 8, !tbaa !7
  store i64 %8, ptr %3, align 8, !tbaa !7
  call void @llvm.lifetime.start.p0(i64 8, ptr %4) #24
  %9 = load i64, ptr %3, align 8, !tbaa !7
  %10 = shl i64 %9, 1
  %11 = add i64 %10, 1
  store i64 %11, ptr %4, align 8, !tbaa !7
  call void @llvm.lifetime.start.p0(i64 8, ptr %5) #24
  %12 = load i64, ptr %4, align 8, !tbaa !7
  store i64 %12, ptr %5, align 8, !tbaa !7
  call void @llvm.lifetime.start.p0(i64 8, ptr %6) #24
  %13 = load i64, ptr %5, align 8, !tbaa !7
  store i64 %13, ptr %6, align 8, !tbaa !7
  call void @llvm.lifetime.start.p0(i64 8, ptr %7) #24
  %14 = load i64, ptr %6, align 8, !tbaa !7
  store i64 %14, ptr %7, align 8, !tbaa !7
  %15 = load i64, ptr %7, align 8, !tbaa !7
  call void @llvm.lifetime.end.p0(i64 8, ptr %7) #24
  call void @llvm.lifetime.end.p0(i64 8, ptr %6) #24
  call void @llvm.lifetime.end.p0(i64 8, ptr %5) #24
  call void @llvm.lifetime.end.p0(i64 8, ptr %4) #24
  call void @llvm.lifetime.end.p0(i64 8, ptr %3) #24
  ret i64 %15
}

; Function Attrs: inlinehint nounwind sspstrong uwtable
define internal i64 @rb_uint2num_inline(i32 noundef %0) #8 {
  %2 = alloca i64, align 8
  %3 = alloca i32, align 4
  store i32 %0, ptr %3, align 4, !tbaa !11
  %4 = load i32, ptr %3, align 4, !tbaa !11
  %5 = zext i32 %4 to i64
  %6 = icmp slt i64 %5, 4611686018427387904
  br i1 %6, label %7, label %11

7:                                                ; preds = %1
  %8 = load i32, ptr %3, align 4, !tbaa !11
  %9 = zext i32 %8 to i64
  %10 = call i64 @RB_INT2FIX(i64 noundef %9) #27
  store i64 %10, ptr %2, align 8
  br label %15

11:                                               ; preds = %1
  %12 = load i32, ptr %3, align 4, !tbaa !11
  %13 = zext i32 %12 to i64
  %14 = call i64 @rb_uint2big(i64 noundef %13)
  store i64 %14, ptr %2, align 8
  br label %15

15:                                               ; preds = %11, %7
  %16 = load i64, ptr %2, align 8
  ret i64 %16
}

; Function Attrs: inlinehint nounwind sspstrong willreturn memory(none) uwtable
define available_externally i32 @gnu_dev_major(i64 noundef %0) #10 {
  %2 = alloca i64, align 8
  %3 = alloca i32, align 4
  store i64 %0, ptr %2, align 8, !tbaa !7
  call void @llvm.lifetime.start.p0(i64 4, ptr %3) #24
  %4 = load i64, ptr %2, align 8, !tbaa !7
  %5 = and i64 %4, 1048320
  %6 = lshr i64 %5, 8
  %7 = trunc i64 %6 to i32
  store i32 %7, ptr %3, align 4, !tbaa !11
  %8 = load i64, ptr %2, align 8, !tbaa !7
  %9 = and i64 %8, -17592186044416
  %10 = lshr i64 %9, 32
  %11 = load i32, ptr %3, align 4, !tbaa !11
  %12 = zext i32 %11 to i64
  %13 = or i64 %12, %10
  %14 = trunc i64 %13 to i32
  store i32 %14, ptr %3, align 4, !tbaa !11
  %15 = load i32, ptr %3, align 4, !tbaa !11
  call void @llvm.lifetime.end.p0(i64 4, ptr %3) #24
  ret i32 %15
}

; Function Attrs: nounwind sspstrong uwtable
define internal ptr @get_stat(i64 noundef %0) #0 {
  %2 = alloca i64, align 8
  %3 = alloca ptr, align 8
  store i64 %0, ptr %2, align 8, !tbaa !7
  call void @llvm.lifetime.start.p0(i64 8, ptr %3) #24
  %4 = load i64, ptr %2, align 8, !tbaa !7
  %5 = call ptr @rb_check_typeddata(i64 noundef %4, ptr noundef @stat_data_type)
  store ptr %5, ptr %3, align 8, !tbaa !24
  %6 = load ptr, ptr %3, align 8, !tbaa !24
  %7 = getelementptr inbounds nuw %struct.rb_stat, ptr %6, i32 0, i32 1
  %8 = load i8, ptr %7, align 8, !tbaa !28, !range !164, !noundef !165
  %9 = trunc i8 %8 to i1
  br i1 %9, label %12, label %10

10:                                               ; preds = %1
  %11 = load i64, ptr @rb_eTypeError, align 8, !tbaa !7
  call void (i64, ptr, ...) @rb_raise(i64 noundef %11, ptr noundef @.str.147) #28
  unreachable

12:                                               ; preds = %1
  %13 = load ptr, ptr %3, align 8, !tbaa !24
  %14 = getelementptr inbounds nuw %struct.rb_stat, ptr %13, i32 0, i32 0
  call void @llvm.lifetime.end.p0(i64 8, ptr %3) #24
  ret ptr %14
}

; Function Attrs: nounwind sspstrong uwtable
define internal i64 @rb_stat_dev_major(i64 noundef %0) #0 {
  %2 = alloca i64, align 8
  store i64 %0, ptr %2, align 8, !tbaa !7
  %3 = load i64, ptr %2, align 8, !tbaa !7
  %4 = call ptr @get_stat(i64 noundef %3)
  %5 = getelementptr inbounds nuw %struct.stat, ptr %4, i32 0, i32 0
  %6 = load i64, ptr %5, align 8, !tbaa !115
  %7 = call i32 @gnu_dev_major(i64 noundef %6) #27
  %8 = call i64 @rb_uint2num_inline(i32 noundef %7)
  ret i64 %8
}