; Function Attrs: nounwind sspstrong uwtable
define internal range(i64 1, 8589934592) i64 @rb_stat_dev_major(i64 noundef %0) #0 {
  %2 = tail call ptr @rb_check_typeddata(i64 noundef %0, ptr noundef nonnull @stat_data_type) #22
  %3 = getelementptr inbounds nuw i8, ptr %2, i64 144
  %4 = load i8, ptr %3, align 8, !tbaa !28, !range !278, !noundef !279
  %5 = trunc nuw i8 %4 to i1
  br i1 %5, label %get_stat.exit, label %6

6:                                                ; preds = %1
  %7 = load i64, ptr @rb_eTypeError, align 8, !tbaa !12
  tail call void (i64, ptr, ...) @rb_raise(i64 noundef %7, ptr noundef nonnull @.str.147) #24
  unreachable

get_stat.exit:                                    ; preds = %1
  %8 = load i64, ptr %2, align 8, !tbaa !207
  %9 = lshr i64 %8, 8
  %10 = and i64 %9, 4095
  %11 = lshr i64 %8, 32
  %12 = and i64 %11, 4294963200
  %13 = or disjoint i64 %10, %12
  %14 = shl nuw nsw i64 %13, 1
  %15 = or disjoint i64 %14, 1
  ret i64 %15
}